target datalayout = "e-m:e-p270:32:32-p271:32:32-p272:64:64-i64:64-i128:128-f80:128-n8:16:32:64-S128"
target triple = "x86_64-pc-linux-gnu"

%struct.tsi_fake_frame = type { ptr, i64, i64, i64, i32 }
%struct.tsi_fake_frame_protector = type { %struct.tsi_frame_protector, %struct.tsi_fake_frame, %struct.tsi_fake_frame, i64 }
%struct.tsi_frame_protector = type { ptr }

; Function Attrs: mustprogress uwtable
define internal void @_ZL23tsi_fake_frame_destructP14tsi_fake_frame(ptr noundef %0) #4 {
  %2 = alloca ptr, align 8
  store ptr %0, ptr %2, align 8, !tbaa !105
  %3 = load ptr, ptr %2, align 8, !tbaa !105
  %4 = getelementptr inbounds nuw %struct.tsi_fake_frame, ptr %3, i32 0, i32 0
  %5 = load ptr, ptr %4, align 8, !tbaa !107
  %6 = icmp ne ptr %5, null
  br i1 %6, label %7, label %11

7:                                                ; preds = %1
  %8 = load ptr, ptr %2, align 8, !tbaa !105
  %9 = getelementptr inbounds nuw %struct.tsi_fake_frame, ptr %8, i32 0, i32 0
  %10 = load ptr, ptr %9, align 8, !tbaa !107
  call void @gpr_free(ptr noundef %10)
  br label %11

11:                                               ; preds = %7, %1
  ret void
}

; Function Attrs: mustprogress uwtable
define internal void @_ZL22fake_protector_destroyP19tsi_frame_protector(ptr noundef %0) #4 {
  %2 = alloca ptr, align 8
  %3 = alloca ptr, align 8
  store ptr %0, ptr %2, align 8, !tbaa !176
  call void @llvm.lifetime.start.p0(i64 8, ptr %3) #3
  %4 = load ptr, ptr %2, align 8, !tbaa !176
  store ptr %4, ptr %3, align 8, !tbaa !45
  %5 = load ptr, ptr %3, align 8, !tbaa !45
  %6 = getelementptr inbounds nuw %struct.tsi_fake_frame_protector, ptr %5, i32 0, i32 1
  call void @_ZL23tsi_fake_frame_destructP14tsi_fake_frame(ptr noundef %6)
  %7 = load ptr, ptr %3, align 8, !tbaa !45
  %8 = getelementptr inbounds nuw %struct.tsi_fake_frame_protector, ptr %7, i32 0, i32 2
  call void @_ZL23tsi_fake_frame_destructP14tsi_fake_frame(ptr noundef %8)
  %9 = load ptr, ptr %2, align 8, !tbaa !176
  call void @gpr_free(ptr noundef %9)
  call void @llvm.lifetime.end.p0(i64 8, ptr %3) #3
  ret void
}