; Function Attrs: mustprogress uwtable
define internal void @_ZL22fake_protector_destroyP19tsi_frame_protector(ptr noundef %0) #3 {
  %2 = getelementptr inbounds nuw i8, ptr %0, i64 8
  %.val4 = load ptr, ptr %2, align 8, !tbaa !54
  %.not.i = icmp eq ptr %.val4, null
  br i1 %.not.i, label %_ZL23tsi_fake_frame_destructP14tsi_fake_frame.exit, label %3

3:                                                ; preds = %1
  tail call void @gpr_free(ptr noundef nonnull %.val4)
  br label %_ZL23tsi_fake_frame_destructP14tsi_fake_frame.exit

_ZL23tsi_fake_frame_destructP14tsi_fake_frame.exit: ; preds = %1, %3
  %4 = getelementptr inbounds nuw i8, ptr %0, i64 48
  %.val = load ptr, ptr %4, align 8, !tbaa !54
  %.not.i5 = icmp eq ptr %.val, null
  br i1 %.not.i5, label %_ZL23tsi_fake_frame_destructP14tsi_fake_frame.exit6, label %5

5:                                                ; preds = %_ZL23tsi_fake_frame_destructP14tsi_fake_frame.exit
  tail call void @gpr_free(ptr noundef nonnull %.val)
  br label %_ZL23tsi_fake_frame_destructP14tsi_fake_frame.exit6

_ZL23tsi_fake_frame_destructP14tsi_fake_frame.exit6: ; preds = %_ZL23tsi_fake_frame_destructP14tsi_fake_frame.exit, %5
  tail call void @gpr_free(ptr noundef nonnull %0)
  ret void
}